Certificate:
    Data:
        Version: 3 (0x2)
        Serial Number:
            b5:5f:02:1a:49:21:0b:9c:2a:24:82:46:0c:11:06:2c
        Signature Algorithm: sha256WithRSAEncryption
        Issuer: CN=Infoblox-Eng
        Validity
            Not Before: Jun 22 23:34:20 2020 GMT
            Not After : Sep 25 23:34:20 2022 GMT
        Subject: CN=prism-server.cxfi.default.network
        Subject Public Key Info:
            Public Key Algorithm: rsaEncryption
                RSA Public-Key: (2048 bit)
                Modulus:
                    00:b8:fe:1d:9d:a1:3a:70:99:93:82:03:b5:e1:39:
                    23:27:eb:47:51:08:7c:db:b6:ce:0c:ce:16:6e:f1:
                    e6:de:21:a6:a2:b8:e8:8b:7a:1c:ab:7a:d0:31:2c:
                    63:fe:88:5e:65:58:53:53:40:63:65:ff:ce:81:3d:
                    da:42:dd:20:f4:b7:58:d9:c2:fd:83:b4:de:9c:df:
                    f5:0c:58:89:9d:44:bf:07:e6:a4:e3:75:d3:17:b3:
                    41:78:85:c0:ab:b6:5b:52:2a:3e:8b:d0:ac:c3:0c:
                    8e:05:18:b3:d8:c7:0c:2e:87:b6:54:d5:aa:fa:db:
                    a5:4e:4b:ae:de:52:a6:41:29:2b:21:18:21:51:14:
                    38:b8:95:4f:23:20:52:e2:4b:73:90:0a:f5:94:20:
                    0b:be:c0:a6:11:97:43:96:cb:d1:0c:b2:79:96:64:
                    93:3d:46:7c:42:00:45:25:81:15:e7:09:c6:48:d4:
                    2e:f0:04:90:92:5f:6a:c6:eb:3b:93:5f:48:7a:f2:
                    89:50:17:04:3d:46:e3:e2:77:82:fd:09:1b:0e:38:
                    15:37:27:96:2c:05:16:f8:63:c4:0a:3c:cf:6c:f8:
                    5c:d6:36:c1:34:87:8e:0e:27:1f:af:47:fa:d8:c4:
                    70:d0:28:1e:82:c9:71:33:34:13:63:7f:b7:47:c9:
                    ee:01
                Exponent: 65537 (0x10001)
        X509v3 extensions:
            X509v3 Basic Constraints: 
                CA:FALSE
            X509v3 Subject Key Identifier: 
                13:B4:09:C3:FD:E2:BC:C2:A6:63:9B:AA:75:87:AA:24:BE:0B:F3:AB
            X509v3 Authority Key Identifier: 
                keyid:61:82:13:0C:29:BA:4D:42:6C:C5:C4:E5:7B:FA:D5:99:DC:FE:E6:07
                DirName:/CN=Infoblox-Eng
                serial:01:93:4F:53:9A:B4:EC:0C:CE:BA:74:28:92:1F:59:AE:CE:37:0E:F3

            X509v3 Extended Key Usage: 
                TLS Web Server Authentication
            X509v3 Key Usage: 
                Digital Signature, Key Encipherment
            X509v3 Subject Alternative Name: 
                DNS:prism.default.svc
    Signature Algorithm: sha256WithRSAEncryption
         85:be:d6:24:f6:6a:9c:4d:18:98:f5:52:73:46:3e:91:02:9e:
         ea:f5:66:39:d9:e9:3f:af:10:c3:d8:21:b0:75:48:34:c3:4a:
         9f:05:7a:8d:6c:91:82:b6:e3:17:a9:59:cf:9b:7f:db:01:a8:
         6d:3c:77:19:ef:06:a8:c5:a9:7b:c3:f1:40:91:e9:4d:a2:35:
         f6:fb:1d:63:dc:a6:63:5e:93:72:eb:e9:e3:a1:c5:6e:3a:06:
         14:d5:61:78:49:d8:c6:96:5f:16:fa:03:c3:d4:16:e4:6a:ac:
         b5:e6:ca:4c:c9:05:d7:f9:af:29:cf:ea:74:66:0d:f6:d6:e9:
         b1:29:83:17:27:cf:da:dd:e8:b6:08:17:1b:2c:ca:1f:10:c9:
         6a:1f:73:be:1b:cf:2d:68:3e:2a:e4:43:3f:4c:47:4b:ab:4c:
         06:ec:c5:39:98:d2:c4:a0:8e:17:3c:34:b7:66:18:03:95:7f:
         8e:fe:03:70:95:e1:a5:63:f8:0f:f2:8b:5e:8d:06:a8:3f:b2:
         31:36:a1:cd:00:b1:c4:ee:d0:02:79:bd:46:26:d2:3f:d5:60:
         6a:eb:27:42:30:cb:32:0f:de:0d:64:40:4a:4c:0a:df:ca:cf:
         d0:dc:49:df:f5:fa:41:29:98:76:33:8d:09:7a:78:96:51:41:
         38:da:37:b1
-----BEGIN CERTIFICATE-----
MIIDkDCCAnigAwIBAgIRALVfAhpJIQucKiSCRgwRBiwwDQYJKoZIhvcNAQELBQAw
FzEVMBMGA1UEAwwMSW5mb2Jsb3gtRW5nMB4XDTIwMDYyMjIzMzQyMFoXDTIyMDky
NTIzMzQyMFowLDEqMCgGA1UEAwwhcHJpc20tc2VydmVyLmN4ZmkuZGVmYXVsdC5u
ZXR3b3JrMIIBIjANBgkqhkiG9w0BAQEFAAOCAQ8AMIIBCgKCAQEAuP4dnaE6cJmT
ggO14TkjJ+tHUQh827bODM4WbvHm3iGmorjoi3ocq3rQMSxj/oheZVhTU0BjZf/O
gT3aQt0g9LdY2cL9g7TenN/1DFiJnUS/B+ak43XTF7NBeIXAq7ZbUio+i9CswwyO
BRiz2McMLoe2VNWq+tulTkuu3lKmQSkrIRghURQ4uJVPIyBS4ktzkAr1lCALvsCm
EZdDlsvRDLJ5lmSTPUZ8QgBFJYEV5wnGSNQu8ASQkl9qxus7k19IevKJUBcEPUbj
4neC/QkbDjgVNyeWLAUW+GPECjzPbPhc1jbBNIeODicfr0f62MRw0CgegslxMzQT
Y3+3R8nuAQIDAQABo4HBMIG+MAkGA1UdEwQCMAAwHQYDVR0OBBYEFBO0CcP94rzC
pmObqnWHqiS+C/OrMFIGA1UdIwRLMEmAFGGCEwwpuk1CbMXE5Xv61Znc/uYHoRuk
GTAXMRUwEwYDVQQDDAxJbmZvYmxveC1FbmeCFAGTT1OatOwMzrp0KJIfWa7ONw7z
MBMGA1UdJQQMMAoGCCsGAQUFBwMBMAsGA1UdDwQEAwIFoDAcBgNVHREEFTATghFw
cmlzbS5kZWZhdWx0LnN2YzANBgkqhkiG9w0BAQsFAAOCAQEAhb7WJPZqnE0YmPVS
c0Y+kQKe6vVmOdnpP68Qw9ghsHVINMNKnwV6jWyRgrbjF6lZz5t/2wGobTx3Ge8G
qMWpe8PxQJHpTaI19vsdY9ymY16Tcuvp46HFbjoGFNVheEnYxpZfFvoDw9QW5Gqs
tebKTMkF1/mvKc/qdGYN9tbpsSmDFyfP2t3otggXGyzKHxDJah9zvhvPLWg+KuRD
P0xHS6tMBuzFOZjSxKCOFzw0t2YYA5V/jv4DcJXhpWP4D/KLXo0GqD+yMTahzQCx
xO7QAnm9RibSP9VgausnQjDLMg/eDWRASkwK38rP0NxJ3/X6QSmYdjONCXp4llFB
ONo3sQ==
-----END CERTIFICATE-----
-----BEGIN PRIVATE KEY-----
MIIEvAIBADANBgkqhkiG9w0BAQEFAASCBKYwggSiAgEAAoIBAQC4/h2doTpwmZOC
A7XhOSMn60dRCHzbts4MzhZu8ebeIaaiuOiLehyretAxLGP+iF5lWFNTQGNl/86B
PdpC3SD0t1jZwv2DtN6c3/UMWImdRL8H5qTjddMXs0F4hcCrtltSKj6L0KzDDI4F
GLPYxwwuh7ZU1ar626VOS67eUqZBKSshGCFRFDi4lU8jIFLiS3OQCvWUIAu+wKYR
l0OWy9EMsnmWZJM9RnxCAEUlgRXnCcZI1C7wBJCSX2rG6zuTX0h68olQFwQ9RuPi
d4L9CRsOOBU3J5YsBRb4Y8QKPM9s+FzWNsE0h44OJx+vR/rYxHDQKB6CyXEzNBNj
f7dHye4BAgMBAAECggEAd0P9u/6SOr4Ih630uLupmrbpR6j9Nnno5gCIHgb/HP78
+7PS2PllOnj3eHxyC0vH7/a94dKFQuFlNZW2/Zyq/pqmQd6gqyUU0Hbi+Y6rSiVk
M6fTboIsEf+TmixBR3NN9O8fW+yxNR8HAOooKP5LMER2nMMUdJ7fOFc66kLGxQK3
+5PZq24N6m/5tltfHdDW34x4XPcWvin6KVv+MpJ2YLnBTmQeaG4XYda+TfNREK3c
6Crr1TxUeVwZUxb9c5ZZHKAx3/kA3oJAwB5N24ZONTbBRlOAfzyyN/Q3xY+UJUMT
mBqKrRrLdL3wEfWHsTM17plwvDnw0j5vqNg+nMXQMQKBgQDuC/UTHtzIOQueW7Fe
RiJ0FKYCAERRADnPPMUDNY8yUy33WhPOpAdqgGsZqjZX22/63BKfD6DCuXhcTObq
GlMoRrSV1JsN5Hg7xRZm1d1anrZ6S2V4O0mvrwHZHr4C1CpqVzvCkn07F/TdfCj2
ij1T3w/tBY3hrVjyO3bOrI3DrwKBgQDG8dOm+zpQuPC9ONMvTSDZxOebFb1pnsxL
2DOC6kKyh7BEC9wqe0OUC/9FrQ/bIMPPN65qeuon0tcX4or3toi9nr/Qb887AlcV
QdwLfftLW0m6J2vk35Do5PW7W+dXSrKziXxY3TC754Z/FHpNVgwlrgnfx/V3EW7V
ZoO81LHlTwKBgDtaxefXmStfdfMtX8Nm725MO7xh/qbHzKJMv772GtdsgBid4DR1
F9hJXusOUvCDKZ++QfJhPi9veYBiOG2E1NlFEAAP+/1xyzzz/orzpnbS/iLuK8XX
2p6wn2BY1v3zkwPi7masigczCP402C3o+DOyedEawm7T/0qe4xfTVKHHAoGAS2ni
LHsxaOYiQ+hljZm0KTjN/ujny0Dp+pozNJ4uuFRdSf4g8G2XeWhu1O+8gflSoJtf
33dGieAPrzsuKKamARNLbOzlZl4FusYjbqvL9Y3eTdWhvbnNyar5R5OYB2wGf65P
V7RJRAGI52VQ0z4aDrKBhbXb483U8MoSiCMsaFsCgYAfaegpSQo7dhJ/4ra0NLn0
9l07TFShZR+iOWsqueTe9oxT6mVLbSwRWvFjVD7V+nKWHsk3BUgUFXNWddAhiPhN
6+5jupZhh3Yqb62PxOopcV9wQSTWi1bv5z69d8x4DSaasYKAC6YVODM0m61ecklL
Vq8QpZCDIsiSmdJr4bObsQ==
-----END PRIVATE KEY-----
